target datalayout = "e-m:e-p270:32:32-p271:32:32-p272:64:64-i64:64-i128:128-f80:128-n8:16:32:64-S128"
target triple = "x86_64-unknown-linux-gnu"

%"class.openvdb::v11_0::io::StreamMetadata" = type { %"class.std::unique_ptr" }
%"class.std::unique_ptr" = type { %"struct.std::__uniq_ptr_data" }
%"struct.std::__uniq_ptr_data" = type { %"class.std::__uniq_ptr_impl" }
%"class.std::__uniq_ptr_impl" = type { %"class.std::tuple" }
%"class.std::tuple" = type { %"struct.std::_Tuple_impl" }
%"struct.std::_Tuple_impl" = type { %"struct.std::_Head_base.1" }
%"struct.std::_Head_base.1" = type { ptr }
%"struct.openvdb::v11_0::io::StreamMetadata::Impl" = type <{ i32, %"struct.openvdb::v11_0::VersionId", i32, i32, [4 x i8], ptr, i8, i8, i8, i8, i32, %"class.openvdb::v11_0::MetaMap", %"class.std::map.2", i8, [7 x i8], i64, i32, [4 x i8] }>
%"struct.openvdb::v11_0::VersionId" = type { i32, i32 }
%"class.openvdb::v11_0::MetaMap" = type { ptr, %"class.std::map" }
%"class.std::map" = type { %"class.std::_Rb_tree" }
%"class.std::_Rb_tree" = type { %"struct.std::_Rb_tree<std::__cxx11::basic_string<char>, std::pair<const std::__cxx11::basic_string<char>, std::shared_ptr<openvdb::v11_0::Metadata>>, std::_Select1st<std::pair<const std::__cxx11::basic_string<char>, std::shared_ptr<openvdb::v11_0::Metadata>>>, std::less<std::__cxx11::basic_string<char>>>::_Rb_tree_impl" }
%"struct.std::_Rb_tree<std::__cxx11::basic_string<char>, std::pair<const std::__cxx11::basic_string<char>, std::shared_ptr<openvdb::v11_0::Metadata>>, std::_Select1st<std::pair<const std::__cxx11::basic_string<char>, std::shared_ptr<openvdb::v11_0::Metadata>>>, std::less<std::__cxx11::basic_string<char>>>::_Rb_tree_impl" = type { %"struct.std::_Rb_tree_key_compare", %"struct.std::_Rb_tree_header" }
%"struct.std::_Rb_tree_key_compare" = type { %"struct.std::less" }
%"struct.std::less" = type { i8 }
%"struct.std::_Rb_tree_header" = type { %"struct.std::_Rb_tree_node_base", i64 }
%"struct.std::_Rb_tree_node_base" = type { i32, ptr, ptr, ptr }
%"class.std::map.2" = type { %"class.std::_Rb_tree.3" }
%"class.std::_Rb_tree.3" = type { %"struct.std::_Rb_tree<std::__cxx11::basic_string<char>, std::pair<const std::__cxx11::basic_string<char>, std::any>, std::_Select1st<std::pair<const std::__cxx11::basic_string<char>, std::any>>, std::less<std::__cxx11::basic_string<char>>>::_Rb_tree_impl" }
%"struct.std::_Rb_tree<std::__cxx11::basic_string<char>, std::pair<const std::__cxx11::basic_string<char>, std::any>, std::_Select1st<std::pair<const std::__cxx11::basic_string<char>, std::any>>, std::less<std::__cxx11::basic_string<char>>>::_Rb_tree_impl" = type { %"struct.std::_Rb_tree_key_compare", %"struct.std::_Rb_tree_header" }

; Function Attrs: mustprogress nounwind uwtable
define linkonce_odr noundef nonnull align 8 dereferenceable(8) ptr @_ZNSt10_Head_baseILm0EPN7openvdb5v11_02io14StreamMetadata4ImplELb0EE7_M_headERKS6_(ptr noundef nonnull align 8 dereferenceable(8) %__b) #5 comdat align 2 {
entry:
  %__b.addr = alloca ptr, align 8
  store ptr %__b, ptr %__b.addr, align 8
  %0 = load ptr, ptr %__b.addr, align 8
  %_M_head_impl = getelementptr inbounds %"struct.std::_Head_base.1", ptr %0, i32 0, i32 0
  ret ptr %_M_head_impl
}

; Function Attrs: mustprogress nounwind uwtable
define linkonce_odr noundef nonnull align 8 dereferenceable(8) ptr @_ZNSt11_Tuple_implILm0EJPN7openvdb5v11_02io14StreamMetadata4ImplESt14default_deleteIS4_EEE7_M_headERKS8_(ptr noundef nonnull align 8 dereferenceable(8) %__t) #5 comdat align 2 {
entry:
  %__t.addr = alloca ptr, align 8
  store ptr %__t, ptr %__t.addr, align 8
  %0 = load ptr, ptr %__t.addr, align 8
  %call = call noundef nonnull align 8 dereferenceable(8) ptr @_ZNSt10_Head_baseILm0EPN7openvdb5v11_02io14StreamMetadata4ImplELb0EE7_M_headERKS6_(ptr noundef nonnull align 8 dereferenceable(8) %0) #3
  ret ptr %call
}

; Function Attrs: mustprogress nounwind uwtable
define linkonce_odr noundef nonnull align 8 dereferenceable(8) ptr @_ZSt12__get_helperILm0EPN7openvdb5v11_02io14StreamMetadata4ImplEJSt14default_deleteIS4_EEERKT0_RKSt11_Tuple_implIXT_EJS8_DpT1_EE(ptr noundef nonnull align 8 dereferenceable(8) %__t) #5 comdat {
entry:
  %__t.addr = alloca ptr, align 8
  store ptr %__t, ptr %__t.addr, align 8
  %0 = load ptr, ptr %__t.addr, align 8
  %call = call noundef nonnull align 8 dereferenceable(8) ptr @_ZNSt11_Tuple_implILm0EJPN7openvdb5v11_02io14StreamMetadata4ImplESt14default_deleteIS4_EEE7_M_headERKS8_(ptr noundef nonnull align 8 dereferenceable(8) %0) #3
  ret ptr %call
}

; Function Attrs: mustprogress nounwind uwtable
define linkonce_odr noundef nonnull align 8 dereferenceable(8) ptr @_ZSt3getILm0EJPN7openvdb5v11_02io14StreamMetadata4ImplESt14default_deleteIS4_EEERKNSt13tuple_elementIXT_ESt5tupleIJDpT0_EEE4typeERKSC_(ptr noundef nonnull align 8 dereferenceable(8) %__t) #5 comdat {
entry:
  %__t.addr = alloca ptr, align 8
  store ptr %__t, ptr %__t.addr, align 8
  %0 = load ptr, ptr %__t.addr, align 8
  %call = call noundef nonnull align 8 dereferenceable(8) ptr @_ZSt12__get_helperILm0EPN7openvdb5v11_02io14StreamMetadata4ImplEJSt14default_deleteIS4_EEERKT0_RKSt11_Tuple_implIXT_EJS8_DpT1_EE(ptr noundef nonnull align 8 dereferenceable(8) %0) #3
  ret ptr %call
}

; Function Attrs: mustprogress nounwind uwtable
define linkonce_odr noundef ptr @_ZNKSt15__uniq_ptr_implIN7openvdb5v11_02io14StreamMetadata4ImplESt14default_deleteIS4_EE6_M_ptrEv(ptr noundef nonnull align 8 dereferenceable(8) %this) #5 comdat align 2 {
entry:
  %this.addr = alloca ptr, align 8
  store ptr %this, ptr %this.addr, align 8
  %this1 = load ptr, ptr %this.addr, align 8
  %_M_t = getelementptr inbounds %"class.std::__uniq_ptr_impl", ptr %this1, i32 0, i32 0
  %call = call noundef nonnull align 8 dereferenceable(8) ptr @_ZSt3getILm0EJPN7openvdb5v11_02io14StreamMetadata4ImplESt14default_deleteIS4_EEERKNSt13tuple_elementIXT_ESt5tupleIJDpT0_EEE4typeERKSC_(ptr noundef nonnull align 8 dereferenceable(8) %_M_t) #3
  %0 = load ptr, ptr %call, align 8
  ret ptr %0
}

; Function Attrs: mustprogress nounwind uwtable
define linkonce_odr noundef ptr @_ZNKSt10unique_ptrIN7openvdb5v11_02io14StreamMetadata4ImplESt14default_deleteIS4_EE3getEv(ptr noundef nonnull align 8 dereferenceable(8) %this) #5 comdat align 2 {
entry:
  %this.addr = alloca ptr, align 8
  store ptr %this, ptr %this.addr, align 8
  %this1 = load ptr, ptr %this.addr, align 8
  %_M_t = getelementptr inbounds %"class.std::unique_ptr", ptr %this1, i32 0, i32 0
  %call = call noundef ptr @_ZNKSt15__uniq_ptr_implIN7openvdb5v11_02io14StreamMetadata4ImplESt14default_deleteIS4_EE6_M_ptrEv(ptr noundef nonnull align 8 dereferenceable(8) %_M_t) #3
  ret ptr %call
}

; Function Attrs: mustprogress nounwind uwtable
define linkonce_odr noundef ptr @_ZNKSt10unique_ptrIN7openvdb5v11_02io14StreamMetadata4ImplESt14default_deleteIS4_EEptEv(ptr noundef nonnull align 8 dereferenceable(8) %this) #5 comdat align 2 {
entry:
  %this.addr = alloca ptr, align 8
  store ptr %this, ptr %this.addr, align 8
  %this1 = load ptr, ptr %this.addr, align 8
  %call = call noundef ptr @_ZNKSt10unique_ptrIN7openvdb5v11_02io14StreamMetadata4ImplESt14default_deleteIS4_EE3getEv(ptr noundef nonnull align 8 dereferenceable(8) %this1) #3
  ret ptr %call
}

; Function Attrs: mustprogress uwtable
define void @_ZNK7openvdb5v11_02io14StreamMetadata10transferToERSt8ios_base(ptr noundef nonnull align 8 dereferenceable(8) %this, ptr noundef nonnull align 8 dereferenceable(216) %strm) #4 align 2 {
entry:
  %this.addr = alloca ptr, align 8
  %strm.addr = alloca ptr, align 8
  store ptr %this, ptr %this.addr, align 8
  store ptr %strm, ptr %strm.addr, align 8
  %this1 = load ptr, ptr %this.addr, align 8
  %0 = load ptr, ptr %strm.addr, align 8
  %mImpl = getelementptr inbounds %"class.openvdb::v11_0::io::StreamMetadata", ptr %this1, i32 0, i32 0
  %call = call noundef ptr @_ZNKSt10unique_ptrIN7openvdb5v11_02io14StreamMetadata4ImplESt14default_deleteIS4_EEptEv(ptr noundef nonnull align 8 dereferenceable(8) %mImpl) #3
  %mLibraryVersion = getelementptr inbounds %"struct.openvdb::v11_0::io::StreamMetadata::Impl", ptr %call, i32 0, i32 1
  %mImpl2 = getelementptr inbounds %"class.openvdb::v11_0::io::StreamMetadata", ptr %this1, i32 0, i32 0
  %call3 = call noundef ptr @_ZNKSt10unique_ptrIN7openvdb5v11_02io14StreamMetadata4ImplESt14default_deleteIS4_EEptEv(ptr noundef nonnull align 8 dereferenceable(8) %mImpl2) #3
  %mFileVersion = getelementptr inbounds %"struct.openvdb::v11_0::io::StreamMetadata::Impl", ptr %call3, i32 0, i32 0
  %1 = load i32, ptr %mFileVersion, align 8
  call void @_ZN7openvdb5v11_02io10setVersionERSt8ios_baseRKNS0_9VersionIdEj(ptr noundef nonnull align 8 dereferenceable(216) %0, ptr noundef nonnull align 4 dereferenceable(8) %mLibraryVersion, i32 noundef %1)
  %2 = load ptr, ptr %strm.addr, align 8
  %mImpl4 = getelementptr inbounds %"class.openvdb::v11_0::io::StreamMetadata", ptr %this1, i32 0, i32 0
  %call5 = call noundef ptr @_ZNKSt10unique_ptrIN7openvdb5v11_02io14StreamMetadata4ImplESt14default_deleteIS4_EEptEv(ptr noundef nonnull align 8 dereferenceable(8) %mImpl4) #3
  %mCompression = getelementptr inbounds %"struct.openvdb::v11_0::io::StreamMetadata::Impl", ptr %call5, i32 0, i32 2
  %3 = load i32, ptr %mCompression, align 4
  call void @_ZN7openvdb5v11_02io18setDataCompressionERSt8ios_basej(ptr noundef nonnull align 8 dereferenceable(216) %2, i32 noundef %3)
  %4 = load ptr, ptr %strm.addr, align 8
  %mImpl6 = getelementptr inbounds %"class.openvdb::v11_0::io::StreamMetadata", ptr %this1, i32 0, i32 0
  %call7 = call noundef ptr @_ZNKSt10unique_ptrIN7openvdb5v11_02io14StreamMetadata4ImplESt14default_deleteIS4_EEptEv(ptr noundef nonnull align 8 dereferenceable(8) %mImpl6) #3
  %mBackgroundPtr = getelementptr inbounds %"struct.openvdb::v11_0::io::StreamMetadata::Impl", ptr %call7, i32 0, i32 5
  %5 = load ptr, ptr %mBackgroundPtr, align 8
  call void @_ZN7openvdb5v11_02io25setGridBackgroundValuePtrERSt8ios_basePKv(ptr noundef nonnull align 8 dereferenceable(216) %4, ptr noundef %5)
  %6 = load ptr, ptr %strm.addr, align 8
  %mImpl8 = getelementptr inbounds %"class.openvdb::v11_0::io::StreamMetadata", ptr %this1, i32 0, i32 0
  %call9 = call noundef ptr @_ZNKSt10unique_ptrIN7openvdb5v11_02io14StreamMetadata4ImplESt14default_deleteIS4_EEptEv(ptr noundef nonnull align 8 dereferenceable(8) %mImpl8) #3
  %mGridClass = getelementptr inbounds %"struct.openvdb::v11_0::io::StreamMetadata::Impl", ptr %call9, i32 0, i32 3
  %7 = load i32, ptr %mGridClass, align 8
  call void @_ZN7openvdb5v11_02io12setGridClassERSt8ios_basej(ptr noundef nonnull align 8 dereferenceable(216) %6, i32 noundef %7)
  %8 = load ptr, ptr %strm.addr, align 8
  %mImpl10 = getelementptr inbounds %"class.openvdb::v11_0::io::StreamMetadata", ptr %this1, i32 0, i32 0
  %call11 = call noundef ptr @_ZNKSt10unique_ptrIN7openvdb5v11_02io14StreamMetadata4ImplESt14default_deleteIS4_EEptEv(ptr noundef nonnull align 8 dereferenceable(8) %mImpl10) #3
  %mHalfFloat = getelementptr inbounds %"struct.openvdb::v11_0::io::StreamMetadata::Impl", ptr %call11, i32 0, i32 6
  %9 = load i8, ptr %mHalfFloat, align 8
  %tobool = trunc i8 %9 to i1
  call void @_ZN7openvdb5v11_02io12setHalfFloatERSt8ios_baseb(ptr noundef nonnull align 8 dereferenceable(216) %8, i1 noundef zeroext %tobool)
  %10 = load ptr, ptr %strm.addr, align 8
  %mImpl12 = getelementptr inbounds %"class.openvdb::v11_0::io::StreamMetadata", ptr %this1, i32 0, i32 0
  %call13 = call noundef ptr @_ZNKSt10unique_ptrIN7openvdb5v11_02io14StreamMetadata4ImplESt14default_deleteIS4_EEptEv(ptr noundef nonnull align 8 dereferenceable(8) %mImpl12) #3
  %mWriteGridStats = getelementptr inbounds %"struct.openvdb::v11_0::io::StreamMetadata::Impl", ptr %call13, i32 0, i32 7
  %11 = load i8, ptr %mWriteGridStats, align 1
  %tobool14 = trunc i8 %11 to i1
  call void @_ZN7openvdb5v11_02io25setWriteGridStatsMetadataERSt8ios_baseb(ptr noundef nonnull align 8 dereferenceable(216) %10, i1 noundef zeroext %tobool14)
  ret void
}