; Function Attrs: mustprogress uwtable
define void @_ZNK7openvdb5v11_02io14StreamMetadata10transferToERSt8ios_base(ptr nocapture noundef nonnull readonly align 8 dereferenceable(8) %this, ptr noundef nonnull align 8 dereferenceable(216) %strm) local_unnamed_addr #6 align 2 {
entry:
  %0 = load ptr, ptr %this, align 8
  %mLibraryVersion = getelementptr inbounds i8, ptr %0, i64 4
  %1 = load i32, ptr %0, align 8
  tail call void @_ZN7openvdb5v11_02io10setVersionERSt8ios_baseRKNS0_9VersionIdEj(ptr noundef nonnull align 8 dereferenceable(216) %strm, ptr noundef nonnull align 4 dereferenceable(8) %mLibraryVersion, i32 noundef %1)
  %2 = load ptr, ptr %this, align 8
  %mCompression = getelementptr inbounds i8, ptr %2, i64 12
  %3 = load i32, ptr %mCompression, align 4
  tail call void @_ZN7openvdb5v11_02io18setDataCompressionERSt8ios_basej(ptr noundef nonnull align 8 dereferenceable(216) %strm, i32 noundef %3)
  %4 = load ptr, ptr %this, align 8
  %mBackgroundPtr = getelementptr inbounds i8, ptr %4, i64 24
  %5 = load ptr, ptr %mBackgroundPtr, align 8
  tail call void @_ZN7openvdb5v11_02io25setGridBackgroundValuePtrERSt8ios_basePKv(ptr noundef nonnull align 8 dereferenceable(216) %strm, ptr noundef %5)
  %6 = load ptr, ptr %this, align 8
  %mGridClass = getelementptr inbounds i8, ptr %6, i64 16
  %7 = load i32, ptr %mGridClass, align 8
  tail call void @_ZN7openvdb5v11_02io12setGridClassERSt8ios_basej(ptr noundef nonnull align 8 dereferenceable(216) %strm, i32 noundef %7)
  %8 = load ptr, ptr %this, align 8
  %mHalfFloat = getelementptr inbounds i8, ptr %8, i64 32
  %9 = load i8, ptr %mHalfFloat, align 8
  %10 = and i8 %9, 1
  %tobool = icmp ne i8 %10, 0
  tail call void @_ZN7openvdb5v11_02io12setHalfFloatERSt8ios_baseb(ptr noundef nonnull align 8 dereferenceable(216) %strm, i1 noundef zeroext %tobool)
  %11 = load ptr, ptr %this, align 8
  %mWriteGridStats = getelementptr inbounds i8, ptr %11, i64 33
  %12 = load i8, ptr %mWriteGridStats, align 1
  %13 = and i8 %12, 1
  %tobool14 = icmp ne i8 %13, 0
  tail call void @_ZN7openvdb5v11_02io25setWriteGridStatsMetadataERSt8ios_baseb(ptr noundef nonnull align 8 dereferenceable(216) %strm, i1 noundef zeroext %tobool14)
  ret void
}